; Function Attrs: nounwind uwtable
define internal i32 @lsarpc_dissect_lsa_LookupNames_response(ptr noundef %0, i32 noundef %1, ptr noundef %2, ptr noundef %3, ptr noundef initializes((80, 88)) %4, ptr noundef %5) #0 {
  %7 = alloca i32, align 4
  %8 = getelementptr inbounds nuw i8, ptr %4, i64 80
  store ptr @.str.1019, ptr %8, align 8
  %9 = load i32, ptr @hf_lsarpc_lsa_LookupNames_domains, align 4
  %10 = tail call i32 @dissect_ndr_toplevel_pointer(ptr noundef %0, i32 noundef %1, ptr noundef %2, ptr noundef %3, ptr noundef %4, ptr noundef %5, ptr noundef nonnull @lsarpc_dissect_element_lsa_LookupNames_domains_, i32 noundef 1, ptr noundef nonnull @.str.1158, i32 noundef %9) #5
  %11 = tail call i32 @dissect_deferred_pointers(ptr noundef %2, ptr noundef %0, i32 noundef %10, ptr noundef %4, ptr noundef %5) #5
  %12 = load i32, ptr @hf_lsarpc_lsa_LookupNames_sids, align 4
  %13 = tail call i32 @dissect_ndr_toplevel_pointer(ptr noundef %0, i32 noundef %11, ptr noundef %2, ptr noundef %3, ptr noundef %4, ptr noundef %5, ptr noundef nonnull @lsarpc_dissect_element_lsa_LookupNames_sids_, i32 noundef 1, ptr noundef nonnull @.str.1156, i32 noundef %12) #5
  %14 = tail call i32 @dissect_deferred_pointers(ptr noundef %2, ptr noundef %0, i32 noundef %13, ptr noundef %4, ptr noundef %5) #5
  %15 = load i32, ptr @hf_lsarpc_lsa_LookupNames_count, align 4
  %16 = tail call i32 @dissect_ndr_toplevel_pointer(ptr noundef %0, i32 noundef %14, ptr noundef %2, ptr noundef %3, ptr noundef %4, ptr noundef %5, ptr noundef nonnull @lsarpc_dissect_element_lsa_LookupNames_count_, i32 noundef 1, ptr noundef nonnull @.str.1157, i32 noundef %15) #5
  %17 = tail call i32 @dissect_deferred_pointers(ptr noundef %2, ptr noundef %0, i32 noundef %16, ptr noundef %4, ptr noundef %5) #5
  %18 = load i32, ptr @hf_lsarpc_status, align 4
  %19 = call i32 @dissect_ntstatus(ptr noundef %0, i32 noundef %17, ptr noundef %2, ptr noundef %3, ptr noundef %4, ptr noundef %5, i32 noundef %18, ptr noundef nonnull %7) #5
  %20 = load i32, ptr %7, align 4
  %.not = icmp eq i32 %20, 0
  br i1 %.not, label %25, label %21

21:                                               ; preds = %6
  %22 = getelementptr inbounds nuw i8, ptr %2, i64 8
  %23 = load ptr, ptr %22, align 8
  %24 = call ptr @val_to_str(i32 noundef %20, ptr noundef nonnull @NT_errors, ptr noundef nonnull @.str.1141) #5
  call void (ptr, i32, ptr, ...) @col_append_fstr(ptr noundef %23, i32 noundef 25, ptr noundef nonnull @.str.1140, ptr noundef %24) #5
  br label %25

25:                                               ; preds = %21, %6
  ret i32 %19
}